; Function Attrs: inlinehint mustprogress nounwind willreturn uwtable
define internal fastcc void @Vec_IntPushTwo(ptr noundef captures(none) %0) unnamed_addr #14 {
  %2 = getelementptr inbounds nuw i8, ptr %0, i64 4
  %3 = load i32, ptr %2, align 4, !tbaa !30
  %4 = load i32, ptr %0, align 8, !tbaa !33
  %5 = icmp eq i32 %3, %4
  br i1 %5, label %6, label %.Vec_IntGrow.exit10_crit_edge.i

.Vec_IntGrow.exit10_crit_edge.i:                  ; preds = %1
  %.phi.trans.insert.i = getelementptr inbounds nuw i8, ptr %0, i64 8
  %.pre.i = load ptr, ptr %.phi.trans.insert.i, align 8, !tbaa !34
  br label %Vec_IntPush.exit

6:                                                ; preds = %1
  %7 = icmp slt i32 %3, 16
  br i1 %7, label %8, label %16

8:                                                ; preds = %6
  %9 = getelementptr inbounds nuw i8, ptr %0, i64 8
  %10 = load ptr, ptr %9, align 8, !tbaa !34
  %.not9.i.i = icmp eq ptr %10, null
  br i1 %.not9.i.i, label %13, label %11

11:                                               ; preds = %8
  %12 = tail call dereferenceable_or_null(64) ptr @realloc(ptr noundef nonnull %10, i64 noundef 64) #30
  br label %Vec_IntGrow.exit.i

13:                                               ; preds = %8
  %14 = tail call noalias dereferenceable_or_null(64) ptr @malloc(i64 noundef 64) #31
  br label %Vec_IntGrow.exit.i

Vec_IntGrow.exit.i:                               ; preds = %13, %11
  %15 = phi ptr [ %12, %11 ], [ %14, %13 ]
  store ptr %15, ptr %9, align 8, !tbaa !34
  store i32 16, ptr %0, align 8, !tbaa !33
  br label %Vec_IntPush.exit

16:                                               ; preds = %6
  %17 = shl nuw nsw i32 %3, 1
  %18 = getelementptr inbounds nuw i8, ptr %0, i64 8
  %19 = load ptr, ptr %18, align 8, !tbaa !34
  %.not9.i9.i = icmp eq ptr %19, null
  %20 = zext nneg i32 %17 to i64
  %21 = shl nuw nsw i64 %20, 2
  br i1 %.not9.i9.i, label %24, label %22

22:                                               ; preds = %16
  %23 = tail call ptr @realloc(ptr noundef nonnull %19, i64 noundef %21) #30
  br label %26

24:                                               ; preds = %16
  %25 = tail call noalias ptr @malloc(i64 noundef %21) #31
  br label %26

26:                                               ; preds = %24, %22
  %27 = phi ptr [ %23, %22 ], [ %25, %24 ]
  store ptr %27, ptr %18, align 8, !tbaa !34
  store i32 %17, ptr %0, align 8, !tbaa !33
  br label %Vec_IntPush.exit

Vec_IntPush.exit:                                 ; preds = %.Vec_IntGrow.exit10_crit_edge.i, %Vec_IntGrow.exit.i, %26
  %28 = phi ptr [ %.pre.i, %.Vec_IntGrow.exit10_crit_edge.i ], [ %27, %26 ], [ %15, %Vec_IntGrow.exit.i ]
  %29 = load i32, ptr %2, align 4, !tbaa !30
  %30 = add nsw i32 %29, 1
  store i32 %30, ptr %2, align 4, !tbaa !30
  %31 = sext i32 %29 to i64
  %32 = getelementptr inbounds i32, ptr %28, i64 %31
  store i32 -1, ptr %32, align 4, !tbaa !35
  %33 = load i32, ptr %2, align 4, !tbaa !30
  %34 = load i32, ptr %0, align 8, !tbaa !33
  %35 = icmp eq i32 %33, %34
  br i1 %35, label %36, label %Vec_IntPush.exit9

36:                                               ; preds = %Vec_IntPush.exit
  %37 = icmp slt i32 %33, 16
  br i1 %37, label %Vec_IntGrow.exit.i8, label %40

Vec_IntGrow.exit.i8:                              ; preds = %36
  %38 = getelementptr inbounds nuw i8, ptr %0, i64 8
  %39 = tail call dereferenceable_or_null(64) ptr @realloc(ptr noundef nonnull %28, i64 noundef 64) #30
  store ptr %39, ptr %38, align 8, !tbaa !34
  br label %Vec_IntPush.exit9.sink.split

40:                                               ; preds = %36
  %41 = shl nuw nsw i32 %33, 1
  %42 = getelementptr inbounds nuw i8, ptr %0, i64 8
  %43 = zext nneg i32 %41 to i64
  %44 = shl nuw nsw i64 %43, 2
  %45 = tail call ptr @realloc(ptr noundef nonnull %28, i64 noundef %44) #30
  store ptr %45, ptr %42, align 8, !tbaa !34
  br label %Vec_IntPush.exit9.sink.split

Vec_IntPush.exit9.sink.split:                     ; preds = %40, %Vec_IntGrow.exit.i8
  %.sink = phi i32 [ 16, %Vec_IntGrow.exit.i8 ], [ %41, %40 ]
  %.ph = phi ptr [ %39, %Vec_IntGrow.exit.i8 ], [ %45, %40 ]
  store i32 %.sink, ptr %0, align 8, !tbaa !33
  br label %Vec_IntPush.exit9

Vec_IntPush.exit9:                                ; preds = %Vec_IntPush.exit9.sink.split, %Vec_IntPush.exit
  %46 = phi ptr [ %28, %Vec_IntPush.exit ], [ %.ph, %Vec_IntPush.exit9.sink.split ]
  %47 = load i32, ptr %2, align 4, !tbaa !30
  %48 = add nsw i32 %47, 1
  store i32 %48, ptr %2, align 4, !tbaa !30
  %49 = sext i32 %47 to i64
  %50 = getelementptr inbounds i32, ptr %46, i64 %49
  store i32 -1, ptr %50, align 4, !tbaa !35
  ret void
}